; Function Attrs: nofree norecurse nosync nounwind memory(argmem: readwrite) uwtable
define internal void @PredictorAdd10_C(ptr noundef readonly captures(none) %0, ptr noundef readonly captures(none) %1, i32 noundef %2, ptr noalias noundef captures(none) %3) #2 {
  %5 = icmp sgt i32 %2, 0
  br i1 %5, label %.lr.ph.preheader, label %._crit_edge

.lr.ph.preheader:                                 ; preds = %4
  %wide.trip.count = zext nneg i32 %2 to i64
  %scevgep = getelementptr i8, ptr %3, i64 -4
  %load_initial = load i32, ptr %scevgep, align 4
  br label %.lr.ph

.lr.ph:                                           ; preds = %.lr.ph.preheader, %.lr.ph
  %store_forwarded = phi i32 [ %load_initial, %.lr.ph.preheader ], [ %38, %.lr.ph ]
  %indvars.iv = phi i64 [ 0, %.lr.ph.preheader ], [ %indvars.iv.next, %.lr.ph ]
  %6 = getelementptr i32, ptr %3, i64 %indvars.iv
  %7 = getelementptr inbounds nuw i32, ptr %1, i64 %indvars.iv
  %8 = getelementptr inbounds i8, ptr %7, i64 -4
  %9 = load i32, ptr %8, align 4, !tbaa !3
  %10 = load i32, ptr %7, align 4, !tbaa !3
  %11 = getelementptr inbounds nuw i8, ptr %7, i64 4
  %12 = load i32, ptr %11, align 4, !tbaa !3
  %13 = xor i32 %9, %store_forwarded
  %14 = lshr i32 %13, 1
  %15 = and i32 %14, 2139062143
  %16 = and i32 %9, %store_forwarded
  %17 = add i32 %15, %16
  %18 = xor i32 %12, %10
  %19 = lshr i32 %18, 1
  %20 = and i32 %19, 2139062143
  %21 = and i32 %12, %10
  %22 = add i32 %20, %21
  %23 = xor i32 %22, %17
  %24 = lshr i32 %23, 1
  %25 = and i32 %24, 2139062143
  %26 = and i32 %22, %17
  %27 = add i32 %25, %26
  %28 = getelementptr inbounds nuw i32, ptr %0, i64 %indvars.iv
  %29 = load i32, ptr %28, align 4, !tbaa !3
  %30 = and i32 %29, -16711936
  %31 = and i32 %27, -16711936
  %32 = add i32 %31, %30
  %33 = and i32 %29, 16711935
  %34 = and i32 %27, 16711935
  %35 = add nuw nsw i32 %34, %33
  %36 = and i32 %32, -16711936
  %37 = and i32 %35, 16711935
  %38 = or disjoint i32 %36, %37
  store i32 %38, ptr %6, align 4, !tbaa !3
  %indvars.iv.next = add nuw nsw i64 %indvars.iv, 1
  %exitcond.not = icmp eq i64 %indvars.iv.next, %wide.trip.count
  br i1 %exitcond.not, label %._crit_edge, label %.lr.ph, !llvm.loop !75

._crit_edge:                                      ; preds = %.lr.ph, %4
  ret void
}